target datalayout = "e-m:e-p270:32:32-p271:32:32-p272:64:64-i64:64-i128:128-f80:128-n8:16:32:64-S128"
target triple = "x86_64-pc-linux-gnu"

%struct.asn1_string_st = type { i32, i32, ptr, i64 }
%struct.asn1_type_st = type { i32, %union.anon }
%union.anon = type { ptr }
%struct.PBEPARAM_st = type { ptr, ptr }

@.str = private unnamed_addr constant [124 x i8] c"generated/home/dtcxzyw/WorkSpace/Projects/compilers/llvm-opt-benchmark/bench/libquic/libquic/boringssl/crypto/pkcs8/pkcs8.c\00", align 1

; Function Attrs: nounwind uwtable
define internal i32 @pkcs12_pbe_keyivgen(ptr noundef %0, ptr noundef %1, i64 noundef %2, ptr noundef %3, ptr noundef %4, ptr noundef %5, i32 noundef %6) #0 {
  %8 = alloca i32, align 4
  %9 = alloca ptr, align 8
  %10 = alloca ptr, align 8
  %11 = alloca i64, align 8
  %12 = alloca ptr, align 8
  %13 = alloca ptr, align 8
  %14 = alloca ptr, align 8
  %15 = alloca i32, align 4
  %16 = alloca ptr, align 8
  %17 = alloca i32, align 4
  %18 = alloca i32, align 4
  %19 = alloca i32, align 4
  %20 = alloca ptr, align 8
  %21 = alloca ptr, align 8
  %22 = alloca [64 x i8], align 16
  %23 = alloca [16 x i8], align 16
  %24 = alloca i32, align 4
  store ptr %0, ptr %9, align 8, !tbaa !99
  store ptr %1, ptr %10, align 8, !tbaa !11
  store i64 %2, ptr %11, align 8, !tbaa !15
  store ptr %3, ptr %12, align 8, !tbaa !101
  store ptr %4, ptr %13, align 8, !tbaa !44
  store ptr %5, ptr %14, align 8, !tbaa !57
  store i32 %6, ptr %15, align 4, !tbaa !13
  call void @llvm.lifetime.start.p0(i64 8, ptr %16) #8
  call void @llvm.lifetime.start.p0(i64 4, ptr %17) #8
  call void @llvm.lifetime.start.p0(i64 4, ptr %18) #8
  call void @llvm.lifetime.start.p0(i64 4, ptr %19) #8
  call void @llvm.lifetime.start.p0(i64 8, ptr %20) #8
  call void @llvm.lifetime.start.p0(i64 8, ptr %21) #8
  call void @llvm.lifetime.start.p0(i64 64, ptr %22) #8
  call void @llvm.lifetime.start.p0(i64 16, ptr %23) #8
  %25 = load ptr, ptr %12, align 8, !tbaa !101
  %26 = icmp eq ptr %25, null
  br i1 %26, label %37, label %27

27:                                               ; preds = %7
  %28 = load ptr, ptr %12, align 8, !tbaa !101
  %29 = getelementptr inbounds nuw %struct.asn1_type_st, ptr %28, i32 0, i32 0
  %30 = load i32, ptr %29, align 8, !tbaa !102
  %31 = icmp ne i32 %30, 16
  br i1 %31, label %37, label %32

32:                                               ; preds = %27
  %33 = load ptr, ptr %12, align 8, !tbaa !101
  %34 = getelementptr inbounds nuw %struct.asn1_type_st, ptr %33, i32 0, i32 1
  %35 = load ptr, ptr %34, align 8, !tbaa !65
  %36 = icmp eq ptr %35, null
  br i1 %36, label %37, label %38

37:                                               ; preds = %32, %27, %7
  call void @ERR_put_error(i32 noundef 19, i32 noundef 0, i32 noundef 104, ptr noundef @.str, i32 noundef 241)
  store i32 0, ptr %8, align 4
  store i32 1, ptr %24, align 4
  br label %119

38:                                               ; preds = %32
  %39 = load ptr, ptr %12, align 8, !tbaa !101
  %40 = getelementptr inbounds nuw %struct.asn1_type_st, ptr %39, i32 0, i32 1
  %41 = load ptr, ptr %40, align 8, !tbaa !65
  %42 = getelementptr inbounds nuw %struct.asn1_string_st, ptr %41, i32 0, i32 2
  %43 = load ptr, ptr %42, align 8, !tbaa !40
  store ptr %43, ptr %21, align 8, !tbaa !11
  %44 = load ptr, ptr %12, align 8, !tbaa !101
  %45 = getelementptr inbounds nuw %struct.asn1_type_st, ptr %44, i32 0, i32 1
  %46 = load ptr, ptr %45, align 8, !tbaa !65
  %47 = getelementptr inbounds nuw %struct.asn1_string_st, ptr %46, i32 0, i32 0
  %48 = load i32, ptr %47, align 8, !tbaa !42
  %49 = sext i32 %48 to i64
  %50 = call ptr @d2i_PBEPARAM(ptr noundef null, ptr noundef %21, i64 noundef %49)
  store ptr %50, ptr %16, align 8, !tbaa !104
  %51 = load ptr, ptr %16, align 8, !tbaa !104
  %52 = icmp eq ptr %51, null
  br i1 %52, label %53, label %54

53:                                               ; preds = %38
  call void @ERR_put_error(i32 noundef 19, i32 noundef 0, i32 noundef 104, ptr noundef @.str, i32 noundef 248)
  store i32 0, ptr %8, align 4
  store i32 1, ptr %24, align 4
  br label %119

54:                                               ; preds = %38
  %55 = load ptr, ptr %16, align 8, !tbaa !104
  %56 = getelementptr inbounds nuw %struct.PBEPARAM_st, ptr %55, i32 0, i32 1
  %57 = load ptr, ptr %56, align 8, !tbaa !106
  %58 = icmp ne ptr %57, null
  br i1 %58, label %60, label %59

59:                                               ; preds = %54
  store i32 1, ptr %18, align 4, !tbaa !13
  br label %66

60:                                               ; preds = %54
  %61 = load ptr, ptr %16, align 8, !tbaa !104
  %62 = getelementptr inbounds nuw %struct.PBEPARAM_st, ptr %61, i32 0, i32 1
  %63 = load ptr, ptr %62, align 8, !tbaa !106
  %64 = call i64 @ASN1_INTEGER_get(ptr noundef %63)
  %65 = trunc i64 %64 to i32
  store i32 %65, ptr %18, align 4, !tbaa !13
  br label %66

66:                                               ; preds = %60, %59
  %67 = load ptr, ptr %16, align 8, !tbaa !104
  %68 = getelementptr inbounds nuw %struct.PBEPARAM_st, ptr %67, i32 0, i32 0
  %69 = load ptr, ptr %68, align 8, !tbaa !108
  %70 = getelementptr inbounds nuw %struct.asn1_string_st, ptr %69, i32 0, i32 2
  %71 = load ptr, ptr %70, align 8, !tbaa !40
  store ptr %71, ptr %20, align 8, !tbaa !11
  %72 = load ptr, ptr %16, align 8, !tbaa !104
  %73 = getelementptr inbounds nuw %struct.PBEPARAM_st, ptr %72, i32 0, i32 0
  %74 = load ptr, ptr %73, align 8, !tbaa !108
  %75 = getelementptr inbounds nuw %struct.asn1_string_st, ptr %74, i32 0, i32 0
  %76 = load i32, ptr %75, align 8, !tbaa !42
  store i32 %76, ptr %17, align 4, !tbaa !13
  %77 = load ptr, ptr %10, align 8, !tbaa !11
  %78 = load i64, ptr %11, align 8, !tbaa !15
  %79 = load ptr, ptr %20, align 8, !tbaa !11
  %80 = load i32, ptr %17, align 4, !tbaa !13
  %81 = sext i32 %80 to i64
  %82 = load i32, ptr %18, align 4, !tbaa !13
  %83 = load ptr, ptr %13, align 8, !tbaa !44
  %84 = call i32 @EVP_CIPHER_key_length(ptr noundef %83)
  %85 = zext i32 %84 to i64
  %86 = getelementptr inbounds [64 x i8], ptr %22, i64 0, i64 0
  %87 = load ptr, ptr %14, align 8, !tbaa !57
  %88 = call i32 @pkcs12_key_gen_raw(ptr noundef %77, i64 noundef %78, ptr noundef %79, i64 noundef %81, i8 noundef zeroext 1, i32 noundef %82, i64 noundef %85, ptr noundef %86, ptr noundef %87)
  %89 = icmp ne i32 %88, 0
  br i1 %89, label %92, label %90

90:                                               ; preds = %66
  call void @ERR_put_error(i32 noundef 19, i32 noundef 0, i32 noundef 110, ptr noundef @.str, i32 noundef 261)
  %91 = load ptr, ptr %16, align 8, !tbaa !104
  call void @PBEPARAM_free(ptr noundef %91)
  store i32 0, ptr %8, align 4
  store i32 1, ptr %24, align 4
  br label %119

92:                                               ; preds = %66
  %93 = load ptr, ptr %10, align 8, !tbaa !11
  %94 = load i64, ptr %11, align 8, !tbaa !15
  %95 = load ptr, ptr %20, align 8, !tbaa !11
  %96 = load i32, ptr %17, align 4, !tbaa !13
  %97 = sext i32 %96 to i64
  %98 = load i32, ptr %18, align 4, !tbaa !13
  %99 = load ptr, ptr %13, align 8, !tbaa !44
  %100 = call i32 @EVP_CIPHER_iv_length(ptr noundef %99)
  %101 = zext i32 %100 to i64
  %102 = getelementptr inbounds [16 x i8], ptr %23, i64 0, i64 0
  %103 = load ptr, ptr %14, align 8, !tbaa !57
  %104 = call i32 @pkcs12_key_gen_raw(ptr noundef %93, i64 noundef %94, ptr noundef %95, i64 noundef %97, i8 noundef zeroext 2, i32 noundef %98, i64 noundef %101, ptr noundef %102, ptr noundef %103)
  %105 = icmp ne i32 %104, 0
  br i1 %105, label %108, label %106

106:                                              ; preds = %92
  call void @ERR_put_error(i32 noundef 19, i32 noundef 0, i32 noundef 110, ptr noundef @.str, i32 noundef 267)
  %107 = load ptr, ptr %16, align 8, !tbaa !104
  call void @PBEPARAM_free(ptr noundef %107)
  store i32 0, ptr %8, align 4
  store i32 1, ptr %24, align 4
  br label %119

108:                                              ; preds = %92
  %109 = load ptr, ptr %16, align 8, !tbaa !104
  call void @PBEPARAM_free(ptr noundef %109)
  %110 = load ptr, ptr %9, align 8, !tbaa !99
  %111 = load ptr, ptr %13, align 8, !tbaa !44
  %112 = getelementptr inbounds [64 x i8], ptr %22, i64 0, i64 0
  %113 = getelementptr inbounds [16 x i8], ptr %23, i64 0, i64 0
  %114 = load i32, ptr %15, align 4, !tbaa !13
  %115 = call i32 @EVP_CipherInit_ex(ptr noundef %110, ptr noundef %111, ptr noundef null, ptr noundef %112, ptr noundef %113, i32 noundef %114)
  store i32 %115, ptr %19, align 4, !tbaa !13
  %116 = getelementptr inbounds [64 x i8], ptr %22, i64 0, i64 0
  call void @OPENSSL_cleanse(ptr noundef %116, i64 noundef 64)
  %117 = getelementptr inbounds [16 x i8], ptr %23, i64 0, i64 0
  call void @OPENSSL_cleanse(ptr noundef %117, i64 noundef 16)
  %118 = load i32, ptr %19, align 4, !tbaa !13
  store i32 %118, ptr %8, align 4
  store i32 1, ptr %24, align 4
  br label %119

119:                                              ; preds = %108, %106, %90, %53, %37
  call void @llvm.lifetime.end.p0(i64 16, ptr %23) #8
  call void @llvm.lifetime.end.p0(i64 64, ptr %22) #8
  call void @llvm.lifetime.end.p0(i64 8, ptr %21) #8
  call void @llvm.lifetime.end.p0(i64 8, ptr %20) #8
  call void @llvm.lifetime.end.p0(i64 4, ptr %19) #8
  call void @llvm.lifetime.end.p0(i64 4, ptr %18) #8
  call void @llvm.lifetime.end.p0(i64 4, ptr %17) #8
  call void @llvm.lifetime.end.p0(i64 8, ptr %16) #8
  %120 = load i32, ptr %8, align 4
  ret i32 %120
}