; Function Attrs: nounwind uwtable
define internal i32 @pkcs12_pbe_keyivgen(ptr noundef %0, ptr noundef readonly captures(none) %1, i64 noundef %2, ptr noundef readonly captures(address_is_null) %3, ptr noundef %4, ptr noundef %5, i32 noundef %6) #0 {
  %8 = alloca ptr, align 8
  %9 = alloca [64 x i8], align 16
  %10 = alloca [16 x i8], align 16
  call void @llvm.lifetime.start.p0(i64 8, ptr nonnull %8) #12
  call void @llvm.lifetime.start.p0(i64 64, ptr nonnull %9) #12
  call void @llvm.lifetime.start.p0(i64 16, ptr nonnull %10) #12
  %11 = icmp eq ptr %3, null
  br i1 %11, label %18, label %12

12:                                               ; preds = %7
  %13 = load i32, ptr %3, align 8, !tbaa !61
  %.not = icmp eq i32 %13, 16
  br i1 %.not, label %14, label %18

14:                                               ; preds = %12
  %15 = getelementptr inbounds nuw i8, ptr %3, i64 8
  %16 = load ptr, ptr %15, align 8, !tbaa !27
  %17 = icmp eq ptr %16, null
  br i1 %17, label %18, label %19

18:                                               ; preds = %14, %12, %7
  tail call void @ERR_put_error(i32 noundef 19, i32 noundef 0, i32 noundef 104, ptr noundef nonnull @.str, i32 noundef 241) #12
  br label %50

19:                                               ; preds = %14
  %20 = getelementptr inbounds nuw i8, ptr %16, i64 8
  %21 = load ptr, ptr %20, align 8, !tbaa !32
  store ptr %21, ptr %8, align 8, !tbaa !6
  %22 = load i32, ptr %16, align 8, !tbaa !30
  %23 = sext i32 %22 to i64
  %24 = call ptr @d2i_PBEPARAM(ptr noundef null, ptr noundef nonnull %8, i64 noundef %23) #12
  %25 = icmp eq ptr %24, null
  br i1 %25, label %26, label %27

26:                                               ; preds = %19
  call void @ERR_put_error(i32 noundef 19, i32 noundef 0, i32 noundef 104, ptr noundef nonnull @.str, i32 noundef 248) #12
  br label %50

27:                                               ; preds = %19
  %28 = getelementptr inbounds nuw i8, ptr %24, i64 8
  %29 = load ptr, ptr %28, align 8, !tbaa !63
  %.not36 = icmp eq ptr %29, null
  br i1 %.not36, label %33, label %30

30:                                               ; preds = %27
  %31 = call i64 @ASN1_INTEGER_get(ptr noundef nonnull %29) #12
  %32 = trunc i64 %31 to i32
  br label %33

33:                                               ; preds = %27, %30
  %.031 = phi i32 [ %32, %30 ], [ 1, %27 ]
  %34 = load ptr, ptr %24, align 8, !tbaa !65
  %35 = getelementptr inbounds nuw i8, ptr %34, i64 8
  %36 = load ptr, ptr %35, align 8, !tbaa !32
  %37 = load i32, ptr %34, align 8, !tbaa !30
  %38 = sext i32 %37 to i64
  %39 = call i32 @EVP_CIPHER_key_length(ptr noundef %4) #12
  %40 = zext i32 %39 to i64
  %41 = call fastcc i32 @pkcs12_key_gen_raw(ptr noundef %1, i64 noundef %2, ptr noundef %36, i64 noundef %38, i8 noundef zeroext 1, i32 noundef %.031, i64 noundef %40, ptr noundef %9, ptr noundef %5)
  %.not37 = icmp eq i32 %41, 0
  br i1 %.not37, label %42, label %43

42:                                               ; preds = %33
  call void @ERR_put_error(i32 noundef 19, i32 noundef 0, i32 noundef 110, ptr noundef nonnull @.str, i32 noundef 261) #12
  call void @PBEPARAM_free(ptr noundef nonnull %24) #12
  br label %50

43:                                               ; preds = %33
  %44 = call i32 @EVP_CIPHER_iv_length(ptr noundef %4) #12
  %45 = zext i32 %44 to i64
  %46 = call fastcc i32 @pkcs12_key_gen_raw(ptr noundef %1, i64 noundef %2, ptr noundef %36, i64 noundef %38, i8 noundef zeroext 2, i32 noundef %.031, i64 noundef %45, ptr noundef %10, ptr noundef %5)
  %.not38 = icmp eq i32 %46, 0
  br i1 %.not38, label %47, label %48

47:                                               ; preds = %43
  call void @ERR_put_error(i32 noundef 19, i32 noundef 0, i32 noundef 110, ptr noundef nonnull @.str, i32 noundef 267) #12
  call void @PBEPARAM_free(ptr noundef nonnull %24) #12
  br label %50

48:                                               ; preds = %43
  call void @PBEPARAM_free(ptr noundef nonnull %24) #12
  %49 = call i32 @EVP_CipherInit_ex(ptr noundef %0, ptr noundef %4, ptr noundef null, ptr noundef nonnull %9, ptr noundef nonnull %10, i32 noundef %6) #12
  call void @OPENSSL_cleanse(ptr noundef nonnull %9, i64 noundef 64) #12
  call void @OPENSSL_cleanse(ptr noundef nonnull %10, i64 noundef 16) #12
  br label %50

50:                                               ; preds = %48, %47, %42, %26, %18
  %.0 = phi i32 [ 0, %18 ], [ 0, %26 ], [ %49, %48 ], [ 0, %47 ], [ 0, %42 ]
  call void @llvm.lifetime.end.p0(i64 16, ptr nonnull %10) #12
  call void @llvm.lifetime.end.p0(i64 64, ptr nonnull %9) #12
  call void @llvm.lifetime.end.p0(i64 8, ptr nonnull %8) #12
  ret i32 %.0
}